#include <math.h>
#include <stdio.h>
#include <stdlib.h>
#include <string.h>

void main()
{
 int n,i,j,k,c,x=0,d,m,a[500][500];
 scanf("%d ",&n);
 for(i=0;i<n;i++)
 {
  for(j=0;j<n;j++)
  scanf("%d",&a[i][j]);
 }   
 for(i=0;i<n;i++)
 {
  for(j=0;j<n;j++)
  {
   if(a[i][j]==0) 
   {
    k=i;m=j;continue;
   }
  }
 }
 c=0;d=0;
 for(i=k;i>0;i--)
 {
  if(a[i][m]==0) c=c+1;
  else break;
 }
 for(j=m;j>0;j--)
 {
  if(a[k][j]==0) d=d+1;
  else break;
 }
 for(i=k-1;i>=(k-c+2);i--)
 {
  for(j=m-1;j>=(m-d+2);j--)
  {
   if(a[i][j]==255) x=x+1;
   else if(a[i][j]==0) break;
  }
 }
 printf("%d",x);
}