; ModuleID = '15/304.c'
source_filename = "15/304.c"
target datalayout = "e-m:e-p270:32:32-p271:32:32-p272:64:64-i64:64-f80:128-n8:16:32:64-S128"
target triple = "x86_64-pc-linux-gnu"

@.str = private unnamed_addr constant [4 x i8] c"%d \00", align 1
@.str.1 = private unnamed_addr constant [3 x i8] c"%d\00", align 1

; Function Attrs: noinline nounwind uwtable
define dso_local void @main() #0 {
  %1 = alloca i32, align 4
  %2 = alloca i32, align 4
  %3 = alloca i32, align 4
  %4 = alloca i32, align 4
  %5 = alloca i32, align 4
  %6 = alloca i32, align 4
  %7 = alloca i32, align 4
  %8 = alloca i32, align 4
  %9 = alloca [500 x [500 x i32]], align 16
  store i32 0, i32* %6, align 4
  %10 = call i32 (i8*, ...) @__isoc99_scanf(i8* getelementptr inbounds ([4 x i8], [4 x i8]* @.str, i64 0, i64 0), i32* %1)
  store i32 0, i32* %2, align 4
  br label %11

11:                                               ; preds = %32, %0
  %12 = load i32, i32* %2, align 4
  %13 = load i32, i32* %1, align 4
  %14 = icmp slt i32 %12, %13
  br i1 %14, label %15, label %35

15:                                               ; preds = %11
  store i32 0, i32* %3, align 4
  br label %16

16:                                               ; preds = %28, %15
  %17 = load i32, i32* %3, align 4
  %18 = load i32, i32* %1, align 4
  %19 = icmp slt i32 %17, %18
  br i1 %19, label %20, label %31

20:                                               ; preds = %16
  %21 = load i32, i32* %2, align 4
  %22 = sext i32 %21 to i64
  %23 = getelementptr inbounds [500 x [500 x i32]], [500 x [500 x i32]]* %9, i64 0, i64 %22
  %24 = load i32, i32* %3, align 4
  %25 = sext i32 %24 to i64
  %26 = getelementptr inbounds [500 x i32], [500 x i32]* %23, i64 0, i64 %25
  %27 = call i32 (i8*, ...) @__isoc99_scanf(i8* getelementptr inbounds ([3 x i8], [3 x i8]* @.str.1, i64 0, i64 0), i32* %26)
  br label %28

28:                                               ; preds = %20
  %29 = load i32, i32* %3, align 4
  %30 = add nsw i32 %29, 1
  store i32 %30, i32* %3, align 4
  br label %16

31:                                               ; preds = %16
  br label %32

32:                                               ; preds = %31
  %33 = load i32, i32* %2, align 4
  %34 = add nsw i32 %33, 1
  store i32 %34, i32* %2, align 4
  br label %11

35:                                               ; preds = %11
  store i32 0, i32* %2, align 4
  br label %36

36:                                               ; preds = %62, %35
  %37 = load i32, i32* %2, align 4
  %38 = load i32, i32* %1, align 4
  %39 = icmp slt i32 %37, %38
  br i1 %39, label %40, label %65

40:                                               ; preds = %36
  store i32 0, i32* %3, align 4
  br label %41

41:                                               ; preds = %58, %40
  %42 = load i32, i32* %3, align 4
  %43 = load i32, i32* %1, align 4
  %44 = icmp slt i32 %42, %43
  br i1 %44, label %45, label %61

45:                                               ; preds = %41
  %46 = load i32, i32* %2, align 4
  %47 = sext i32 %46 to i64
  %48 = getelementptr inbounds [500 x [500 x i32]], [500 x [500 x i32]]* %9, i64 0, i64 %47
  %49 = load i32, i32* %3, align 4
  %50 = sext i32 %49 to i64
  %51 = getelementptr inbounds [500 x i32], [500 x i32]* %48, i64 0, i64 %50
  %52 = load i32, i32* %51, align 4
  %53 = icmp eq i32 %52, 0
  br i1 %53, label %54, label %57

54:                                               ; preds = %45
  %55 = load i32, i32* %2, align 4
  store i32 %55, i32* %4, align 4
  %56 = load i32, i32* %3, align 4
  store i32 %56, i32* %8, align 4
  br label %58

57:                                               ; preds = %45
  br label %58

58:                                               ; preds = %57, %54
  %59 = load i32, i32* %3, align 4
  %60 = add nsw i32 %59, 1
  store i32 %60, i32* %3, align 4
  br label %41

61:                                               ; preds = %41
  br label %62

62:                                               ; preds = %61
  %63 = load i32, i32* %2, align 4
  %64 = add nsw i32 %63, 1
  store i32 %64, i32* %2, align 4
  br label %36

65:                                               ; preds = %36
  store i32 0, i32* %5, align 4
  store i32 0, i32* %7, align 4
  %66 = load i32, i32* %4, align 4
  store i32 %66, i32* %2, align 4
  br label %67

67:                                               ; preds = %84, %65
  %68 = load i32, i32* %2, align 4
  %69 = icmp sgt i32 %68, 0
  br i1 %69, label %70, label %87

70:                                               ; preds = %67
  %71 = load i32, i32* %2, align 4
  %72 = sext i32 %71 to i64
  %73 = getelementptr inbounds [500 x [500 x i32]], [500 x [500 x i32]]* %9, i64 0, i64 %72
  %74 = load i32, i32* %8, align 4
  %75 = sext i32 %74 to i64
  %76 = getelementptr inbounds [500 x i32], [500 x i32]* %73, i64 0, i64 %75
  %77 = load i32, i32* %76, align 4
  %78 = icmp eq i32 %77, 0
  br i1 %78, label %79, label %82

79:                                               ; preds = %70
  %80 = load i32, i32* %5, align 4
  %81 = add nsw i32 %80, 1
  store i32 %81, i32* %5, align 4
  br label %83

82:                                               ; preds = %70
  br label %87

83:                                               ; preds = %79
  br label %84

84:                                               ; preds = %83
  %85 = load i32, i32* %2, align 4
  %86 = add nsw i32 %85, -1
  store i32 %86, i32* %2, align 4
  br label %67

87:                                               ; preds = %82, %67
  %88 = load i32, i32* %8, align 4
  store i32 %88, i32* %3, align 4
  br label %89

89:                                               ; preds = %106, %87
  %90 = load i32, i32* %3, align 4
  %91 = icmp sgt i32 %90, 0
  br i1 %91, label %92, label %109

92:                                               ; preds = %89
  %93 = load i32, i32* %4, align 4
  %94 = sext i32 %93 to i64
  %95 = getelementptr inbounds [500 x [500 x i32]], [500 x [500 x i32]]* %9, i64 0, i64 %94
  %96 = load i32, i32* %3, align 4
  %97 = sext i32 %96 to i64
  %98 = getelementptr inbounds [500 x i32], [500 x i32]* %95, i64 0, i64 %97
  %99 = load i32, i32* %98, align 4
  %100 = icmp eq i32 %99, 0
  br i1 %100, label %101, label %104

101:                                              ; preds = %92
  %102 = load i32, i32* %7, align 4
  %103 = add nsw i32 %102, 1
  store i32 %103, i32* %7, align 4
  br label %105

104:                                              ; preds = %92
  br label %109

105:                                              ; preds = %101
  br label %106

106:                                              ; preds = %105
  %107 = load i32, i32* %3, align 4
  %108 = add nsw i32 %107, -1
  store i32 %108, i32* %3, align 4
  br label %89

109:                                              ; preds = %104, %89
  %110 = load i32, i32* %4, align 4
  %111 = sub nsw i32 %110, 1
  store i32 %111, i32* %2, align 4
  br label %112

112:                                              ; preds = %157, %109
  %113 = load i32, i32* %2, align 4
  %114 = load i32, i32* %4, align 4
  %115 = load i32, i32* %5, align 4
  %116 = sub nsw i32 %114, %115
  %117 = add nsw i32 %116, 2
  %118 = icmp sge i32 %113, %117
  br i1 %118, label %119, label %160

119:                                              ; preds = %112
  %120 = load i32, i32* %8, align 4
  %121 = sub nsw i32 %120, 1
  store i32 %121, i32* %3, align 4
  br label %122

122:                                              ; preds = %153, %119
  %123 = load i32, i32* %3, align 4
  %124 = load i32, i32* %8, align 4
  %125 = load i32, i32* %7, align 4
  %126 = sub nsw i32 %124, %125
  %127 = add nsw i32 %126, 2
  %128 = icmp sge i32 %123, %127
  br i1 %128, label %129, label %156

129:                                              ; preds = %122
  %130 = load i32, i32* %2, align 4
  %131 = sext i32 %130 to i64
  %132 = getelementptr inbounds [500 x [500 x i32]], [500 x [500 x i32]]* %9, i64 0, i64 %131
  %133 = load i32, i32* %3, align 4
  %134 = sext i32 %133 to i64
  %135 = getelementptr inbounds [500 x i32], [500 x i32]* %132, i64 0, i64 %134
  %136 = load i32, i32* %135, align 4
  %137 = icmp eq i32 %136, 255
  br i1 %137, label %138, label %141

138:                                              ; preds = %129
  %139 = load i32, i32* %6, align 4
  %140 = add nsw i32 %139, 1
  store i32 %140, i32* %6, align 4
  br label %152

141:                                              ; preds = %129
  %142 = load i32, i32* %2, align 4
  %143 = sext i32 %142 to i64
  %144 = getelementptr inbounds [500 x [500 x i32]], [500 x [500 x i32]]* %9, i64 0, i64 %143
  %145 = load i32, i32* %3, align 4
  %146 = sext i32 %145 to i64
  %147 = getelementptr inbounds [500 x i32], [500 x i32]* %144, i64 0, i64 %146
  %148 = load i32, i32* %147, align 4
  %149 = icmp eq i32 %148, 0
  br i1 %149, label %150, label %151

150:                                              ; preds = %141
  br label %156

151:                                              ; preds = %141
  br label %152

152:                                              ; preds = %151, %138
  br label %153

153:                                              ; preds = %152
  %154 = load i32, i32* %3, align 4
  %155 = add nsw i32 %154, -1
  store i32 %155, i32* %3, align 4
  br label %122

156:                                              ; preds = %150, %122
  br label %157

157:                                              ; preds = %156
  %158 = load i32, i32* %2, align 4
  %159 = add nsw i32 %158, -1
  store i32 %159, i32* %2, align 4
  br label %112

160:                                              ; preds = %112
  %161 = load i32, i32* %6, align 4
  %162 = call i32 (i8*, ...) @printf(i8* getelementptr inbounds ([3 x i8], [3 x i8]* @.str.1, i64 0, i64 0), i32 %161)
  ret void
}

declare dso_local i32 @__isoc99_scanf(i8*, ...) #1

declare dso_local i32 @printf(i8*, ...) #1


!llvm.module.flags = !{!0}
!llvm.ident = !{!1}

!0 = !{i32 1, !"wchar_size", i32 4}
!1 = !{!"clang version 10.0.0-4ubuntu1 "}
